target datalayout = "e-m:e-p270:32:32-p271:32:32-p272:64:64-i64:64-i128:128-f80:128-n8:16:32:64-S128"
target triple = "x86_64-pc-linux-gnu"

%struct.rsakeys_assoc = type { ptr, ptr, ptr, ptr }

@.str.375 = private unnamed_addr constant [3 x i8] c"rb\00", align 1
@.str.376 = private unnamed_addr constant [36 x i8] c"Could not load PKCS#12 key file: %s\00", align 1
@.str.377 = private unnamed_addr constant [54 x i8] c"Leave this field blank if the keyfile is not PKCS#12.\00", align 1

; Function Attrs: null_pointer_is_valid sspstrong uwtable
define internal zeroext i1 @rsakeys_uat_fld_password_chk_cb(ptr noundef %0, ptr noundef %1, i32 noundef %2, ptr noundef %3, ptr noundef %4, ptr noundef %5) #0 {
  %7 = alloca i1, align 1
  %8 = alloca ptr, align 8
  %9 = alloca ptr, align 8
  %10 = alloca i32, align 4
  %11 = alloca ptr, align 8
  %12 = alloca ptr, align 8
  %13 = alloca ptr, align 8
  %14 = alloca ptr, align 8
  %15 = alloca ptr, align 8
  %16 = alloca ptr, align 8
  %17 = alloca ptr, align 8
  %18 = alloca i32, align 4
  store ptr %0, ptr %8, align 8
  store ptr %1, ptr %9, align 8
  store i32 %2, ptr %10, align 4
  store ptr %3, ptr %11, align 8
  store ptr %4, ptr %12, align 8
  store ptr %5, ptr %13, align 8
  %19 = load ptr, ptr %9, align 8
  %20 = icmp ne ptr %19, null
  br i1 %20, label %21, label %62

21:                                               ; preds = %6
  %22 = load ptr, ptr %9, align 8
  %23 = load i8, ptr %22, align 1
  %24 = sext i8 %23 to i32
  %25 = icmp ne i32 %24, 0
  br i1 %25, label %26, label %62

26:                                               ; preds = %21
  call void @llvm.lifetime.start.p0(i64 8, ptr %14) #17
  %27 = load ptr, ptr %8, align 8
  store ptr %27, ptr %14, align 8
  call void @llvm.lifetime.start.p0(i64 8, ptr %15) #17
  %28 = load ptr, ptr %14, align 8
  %29 = getelementptr inbounds nuw %struct.rsakeys_assoc, ptr %28, i32 0, i32 2
  %30 = load ptr, ptr %29, align 8
  %31 = call noalias ptr @fopen(ptr noundef %30, ptr noundef @.str.375)
  store ptr %31, ptr %15, align 8
  %32 = load ptr, ptr %15, align 8
  %33 = icmp ne ptr %32, null
  br i1 %33, label %34, label %55

34:                                               ; preds = %26
  call void @llvm.lifetime.start.p0(i64 8, ptr %16) #17
  store ptr null, ptr %16, align 8
  call void @llvm.lifetime.start.p0(i64 8, ptr %17) #17
  %35 = load ptr, ptr %15, align 8
  %36 = load ptr, ptr %9, align 8
  %37 = call ptr @rsa_load_pkcs12(ptr noundef %35, ptr noundef %36, ptr noundef %16)
  store ptr %37, ptr %17, align 8
  %38 = load ptr, ptr %17, align 8
  %39 = icmp ne ptr %38, null
  br i1 %39, label %47, label %40

40:                                               ; preds = %34
  %41 = load ptr, ptr %15, align 8
  %42 = call i32 @fclose(ptr noundef %41)
  %43 = load ptr, ptr %16, align 8
  %44 = call noalias ptr (ptr, ptr, ...) @wmem_strdup_printf(ptr noundef null, ptr noundef @.str.376, ptr noundef %43)
  %45 = load ptr, ptr %13, align 8
  store ptr %44, ptr %45, align 8
  %46 = load ptr, ptr %16, align 8
  call void @g_free(ptr noundef %46)
  store i1 false, ptr %7, align 1
  store i32 1, ptr %18, align 4
  br label %52

47:                                               ; preds = %34
  %48 = load ptr, ptr %16, align 8
  call void @g_free(ptr noundef %48)
  %49 = load ptr, ptr %17, align 8
  call void @gnutls_x509_privkey_deinit(ptr noundef %49)
  %50 = load ptr, ptr %15, align 8
  %51 = call i32 @fclose(ptr noundef %50)
  store i32 0, ptr %18, align 4
  br label %52

52:                                               ; preds = %47, %40
  call void @llvm.lifetime.end.p0(i64 8, ptr %17) #17
  call void @llvm.lifetime.end.p0(i64 8, ptr %16) #17
  %53 = load i32, ptr %18, align 4
  switch i32 %53, label %59 [
    i32 0, label %54
  ]

54:                                               ; preds = %52
  br label %58

55:                                               ; preds = %26
  %56 = call noalias ptr (ptr, ptr, ...) @wmem_strdup_printf(ptr noundef null, ptr noundef @.str.377)
  %57 = load ptr, ptr %13, align 8
  store ptr %56, ptr %57, align 8
  store i1 false, ptr %7, align 1
  store i32 1, ptr %18, align 4
  br label %59

58:                                               ; preds = %54
  store i32 0, ptr %18, align 4
  br label %59

59:                                               ; preds = %58, %55, %52
  call void @llvm.lifetime.end.p0(i64 8, ptr %15) #17
  call void @llvm.lifetime.end.p0(i64 8, ptr %14) #17
  %60 = load i32, ptr %18, align 4
  switch i32 %60, label %66 [
    i32 0, label %61
    i32 1, label %64
  ]

61:                                               ; preds = %59
  br label %62

62:                                               ; preds = %61, %21, %6
  %63 = load ptr, ptr %13, align 8
  store ptr null, ptr %63, align 8
  store i1 true, ptr %7, align 1
  br label %64

64:                                               ; preds = %62, %59
  %65 = load i1, ptr %7, align 1
  ret i1 %65

66:                                               ; preds = %59
  unreachable
}