; Function Attrs: null_pointer_is_valid sspstrong uwtable
define internal noundef zeroext i1 @rsakeys_uat_fld_password_chk_cb(ptr noundef readonly captures(none) %0, ptr noundef %1, i32 %2, ptr readnone captures(none) %3, ptr readnone captures(none) %4, ptr noundef writeonly captures(none) initializes((0, 8)) %5) #0 {
  %7 = alloca ptr, align 8
  %.not = icmp eq ptr %1, null
  br i1 %.not, label %24, label %8

8:                                                ; preds = %6
  %9 = load i8, ptr %1, align 1
  %.not21 = icmp eq i8 %9, 0
  br i1 %.not21, label %24, label %10

10:                                               ; preds = %8
  %11 = getelementptr inbounds nuw i8, ptr %0, i64 16
  %12 = load ptr, ptr %11, align 8
  %13 = tail call noalias ptr @fopen(ptr noundef %12, ptr noundef nonnull @.str.375)
  %.not22 = icmp eq ptr %13, null
  br i1 %.not22, label %.thread, label %14

14:                                               ; preds = %10
  call void @llvm.lifetime.start.p0(i64 8, ptr nonnull %7) #16
  store ptr null, ptr %7, align 8
  %15 = call ptr @rsa_load_pkcs12(ptr noundef nonnull %13, ptr noundef nonnull %1, ptr noundef nonnull %7)
  %.not23 = icmp eq ptr %15, null
  br i1 %.not23, label %19, label %.thread26

.thread26:                                        ; preds = %14
  %16 = load ptr, ptr %7, align 8
  call void @g_free(ptr noundef %16)
  call void @gnutls_x509_privkey_deinit(ptr noundef nonnull %15)
  %17 = call i32 @fclose(ptr noundef nonnull %13)
  call void @llvm.lifetime.end.p0(i64 8, ptr nonnull %7) #16
  br label %24

.thread:                                          ; preds = %10
  %18 = tail call noalias ptr (ptr, ptr, ...) @wmem_strdup_printf(ptr noundef null, ptr noundef nonnull @.str.377)
  store ptr %18, ptr %5, align 8
  br label %25

19:                                               ; preds = %14
  %20 = call i32 @fclose(ptr noundef nonnull %13)
  %21 = load ptr, ptr %7, align 8
  %22 = call noalias ptr (ptr, ptr, ...) @wmem_strdup_printf(ptr noundef null, ptr noundef nonnull @.str.376, ptr noundef %21)
  store ptr %22, ptr %5, align 8
  %23 = load ptr, ptr %7, align 8
  call void @g_free(ptr noundef %23)
  call void @llvm.lifetime.end.p0(i64 8, ptr nonnull %7) #16
  br label %25

24:                                               ; preds = %.thread26, %8, %6
  store ptr null, ptr %5, align 8
  br label %25

25:                                               ; preds = %19, %.thread, %24
  %.2 = phi i1 [ false, %19 ], [ true, %24 ], [ false, %.thread ]
  ret i1 %.2
}